; Function Attrs: mustprogress nounwind uwtable
define hidden void @_ZN26SuperWordVTransformBuilder24set_all_req_with_scalarsEP4NodeP14VTransformNodeR9VectorSet(ptr nocapture noundef nonnull align 8 dereferenceable(2088) %0, ptr nocapture noundef readonly %1, ptr noundef %2, ptr noundef nonnull align 8 dereferenceable(32) %3) local_unnamed_addr #0 align 2 {
  %5 = getelementptr inbounds i8, ptr %1, i64 24
  %6 = load i32, ptr %5, align 8
  %.not = icmp eq i32 %6, 0
  br i1 %.not, label %._crit_edge, label %.lr.ph

.lr.ph:                                           ; preds = %4
  %7 = getelementptr inbounds i8, ptr %1, i64 8
  %8 = getelementptr inbounds i8, ptr %2, i64 24
  %9 = getelementptr inbounds i8, ptr %3, i64 8
  br label %10

10:                                               ; preds = %.lr.ph, %55
  %11 = phi i32 [ %6, %.lr.ph ], [ %56, %55 ]
  %.010 = phi i32 [ 0, %.lr.ph ], [ %57, %55 ]
  %12 = load ptr, ptr %7, align 8
  %13 = zext i32 %.010 to i64
  %14 = getelementptr inbounds ptr, ptr %12, i64 %13
  %15 = load ptr, ptr %14, align 8
  %16 = icmp eq ptr %15, null
  br i1 %16, label %55, label %17

17:                                               ; preds = %10
  %18 = tail call noundef ptr @_ZN26SuperWordVTransformBuilder34get_vtnode_or_wrap_as_input_scalarEP4Node(ptr noundef nonnull align 8 dereferenceable(2088) %0, ptr noundef nonnull %15)
  %19 = load ptr, ptr %8, align 8
  %20 = sext i32 %.010 to i64
  %21 = getelementptr inbounds ptr, ptr %19, i64 %20
  store ptr %18, ptr %21, align 8
  %22 = getelementptr inbounds i8, ptr %18, i64 40
  %23 = load i32, ptr %22, align 8
  %24 = getelementptr inbounds i8, ptr %18, i64 44
  %25 = load i32, ptr %24, align 4
  %26 = icmp eq i32 %23, %25
  br i1 %26, label %27, label %_ZN14VTransformNode7set_reqEjPS_.exit.i

27:                                               ; preds = %17
  %28 = add nsw i32 %23, 1
  %29 = icmp sgt i32 %23, -1
  %30 = xor i32 %23, -2147483648
  %31 = and i32 %30, %28
  %32 = icmp eq i32 %31, 0
  %33 = and i1 %29, %32
  %34 = tail call range(i32 0, 33) i32 @llvm.ctlz.i32(i32 %28, i1 true)
  %35 = sub nuw nsw i32 32, %34
  %36 = shl nuw i32 1, %35
  %.0.i.i.i.i.i.i.i.i = select i1 %33, i32 %28, i32 %36
  tail call void @_ZN26GrowableArrayWithAllocatorIP14VTransformNode13GrowableArrayIS1_EE9expand_toEi(ptr noundef nonnull align 8 dereferenceable(16) %22, i32 noundef %.0.i.i.i.i.i.i.i.i)
  %.pre.i.i.i.i.i = load i32, ptr %22, align 8
  br label %_ZN14VTransformNode7set_reqEjPS_.exit.i

_ZN14VTransformNode7set_reqEjPS_.exit.i:          ; preds = %27, %17
  %37 = phi i32 [ %.pre.i.i.i.i.i, %27 ], [ %23, %17 ]
  %38 = add nsw i32 %37, 1
  store i32 %38, ptr %22, align 8
  %39 = getelementptr inbounds i8, ptr %18, i64 48
  %40 = load ptr, ptr %39, align 8
  %41 = sext i32 %37 to i64
  %42 = getelementptr inbounds ptr, ptr %40, i64 %41
  store ptr %2, ptr %42, align 8
  %43 = getelementptr inbounds i8, ptr %18, i64 8
  %44 = load i32, ptr %43, align 8
  %45 = lshr i32 %44, 5
  %46 = load i32, ptr %3, align 8
  %.not.i.i = icmp ult i32 %45, %46
  br i1 %.not.i.i, label %_ZN26SuperWordVTransformBuilder19set_req_with_scalarEP4NodeP14VTransformNodeR9VectorSeti.exit, label %47

47:                                               ; preds = %_ZN14VTransformNode7set_reqEjPS_.exit.i
  tail call void @_ZN9VectorSet4growEj(ptr noundef nonnull align 8 dereferenceable(32) %3, i32 noundef %45) #6
  br label %_ZN26SuperWordVTransformBuilder19set_req_with_scalarEP4NodeP14VTransformNodeR9VectorSeti.exit

_ZN26SuperWordVTransformBuilder19set_req_with_scalarEP4NodeP14VTransformNodeR9VectorSeti.exit: ; preds = %_ZN14VTransformNode7set_reqEjPS_.exit.i, %47
  %48 = and i32 %44, 31
  %49 = shl nuw i32 1, %48
  %50 = load ptr, ptr %9, align 8
  %51 = zext nneg i32 %45 to i64
  %52 = getelementptr inbounds i32, ptr %50, i64 %51
  %53 = load i32, ptr %52, align 4
  %54 = or i32 %53, %49
  store i32 %54, ptr %52, align 4
  %.pre = load i32, ptr %5, align 8
  br label %55

55:                                               ; preds = %10, %_ZN26SuperWordVTransformBuilder19set_req_with_scalarEP4NodeP14VTransformNodeR9VectorSeti.exit
  %56 = phi i32 [ %11, %10 ], [ %.pre, %_ZN26SuperWordVTransformBuilder19set_req_with_scalarEP4NodeP14VTransformNodeR9VectorSeti.exit ]
  %57 = add nuw i32 %.010, 1
  %58 = icmp ult i32 %57, %56
  br i1 %58, label %10, label %._crit_edge, !llvm.loop !19

._crit_edge:                                      ; preds = %55, %4
  ret void
}